; Function Attrs: mustprogress uwtable
define noundef zeroext i1 @_ZN5draco10PointCloud26DeduplicateAttributeValuesEv(ptr nocapture noundef nonnull readonly align 8 dereferenceable(164) %0) unnamed_addr #6 align 2 {
  %2 = getelementptr inbounds i8, ptr %0, i64 160
  %3 = load i32, ptr %2, align 8
  %4 = icmp eq i32 %3, 0
  br i1 %4, label %.loopexit, label %.preheader

.preheader:                                       ; preds = %1
  %5 = getelementptr inbounds i8, ptr %0, i64 16
  %6 = getelementptr inbounds i8, ptr %0, i64 24
  %7 = load ptr, ptr %6, align 8
  %8 = load ptr, ptr %5, align 8
  %9 = ptrtoint ptr %7 to i64
  %10 = ptrtoint ptr %8 to i64
  %11 = sub i64 %9, %10
  %12 = lshr exact i64 %11, 3
  %13 = trunc i64 %12 to i32
  %14 = icmp sgt i32 %13, 0
  br i1 %14, label %.lr.ph, label %.loopexit

15:                                               ; preds = %.lr.ph
  %indvars.iv.next = add nuw nsw i64 %indvars.iv, 1
  %16 = load ptr, ptr %6, align 8
  %17 = load ptr, ptr %5, align 8
  %18 = ptrtoint ptr %16 to i64
  %19 = ptrtoint ptr %17 to i64
  %20 = sub i64 %18, %19
  %sext = shl i64 %20, 29
  %21 = ashr i64 %sext, 32
  %22 = icmp slt i64 %indvars.iv.next, %21
  br i1 %22, label %.lr.ph, label %.loopexit, !llvm.loop !35

.lr.ph:                                           ; preds = %.preheader, %15
  %indvars.iv = phi i64 [ %indvars.iv.next, %15 ], [ 0, %.preheader ]
  %23 = phi ptr [ %17, %15 ], [ %8, %.preheader ]
  %24 = getelementptr inbounds %"class.std::unique_ptr.7", ptr %23, i64 %indvars.iv
  %25 = load ptr, ptr %24, align 8
  %26 = tail call noundef i32 @_ZN5draco14PointAttribute17DeduplicateValuesERKNS_17GeometryAttributeE(ptr noundef nonnull align 8 dereferenceable(112) %25, ptr noundef nonnull align 8 dereferenceable(64) %25)
  %.not.not = icmp ne i32 %26, 0
  br i1 %.not.not, label %15, label %.loopexit

.loopexit:                                        ; preds = %.lr.ph, %15, %.preheader, %1
  %.05 = phi i1 [ true, %1 ], [ true, %.preheader ], [ %.not.not, %15 ], [ %.not.not, %.lr.ph ]
  ret i1 %.05
}